target datalayout = "e-m:e-p270:32:32-p271:32:32-p272:64:64-i64:64-i128:128-f80:128-n8:16:32:64-S128"
target triple = "x86_64-pc-linux-gnu"

%class.ptr_vector = type { %class.vector }
%class.vector = type { ptr }
%class.vector.57 = type { ptr }
%class.ptr_vector.56 = type { %class.vector.57 }
%"class.datatype::decl::plugin" = type { %class.decl_plugin.base, %class.scoped_ptr, %class.map.68, %class.map.72, i32, %class.svector.7, i32, i8, [3 x i8], %class.obj_map.76, %class.obj_map.81, %class.obj_map.86, %class.obj_map.24, %class.obj_map.24, %class.obj_map.24, %class.obj_map.91, %class.obj_map.91, %class.obj_map.91, ptr, %class.ref_vector_core.96, %class.ptr_vector.97, i32, %class.ptr_vector }
%class.decl_plugin.base = type <{ ptr, ptr, i32 }>
%class.scoped_ptr = type { ptr }
%class.map.68 = type { %class.table2map.69 }
%class.table2map.69 = type { %class.core_hashtable.70 }
%class.core_hashtable.70 = type <{ ptr, i32, i32, i32, [4 x i8] }>
%class.map.72 = type { %class.table2map.73 }
%class.table2map.73 = type { %class.core_hashtable.74 }
%class.core_hashtable.74 = type <{ ptr, i32, i32, i32, [4 x i8] }>
%class.svector.7 = type { %class.vector.8 }
%class.vector.8 = type { ptr }
%class.obj_map.76 = type { %class.core_hashtable.77 }
%class.core_hashtable.77 = type <{ ptr, i32, i32, i32, [4 x i8] }>
%class.obj_map.81 = type { %class.core_hashtable.82 }
%class.core_hashtable.82 = type <{ ptr, i32, i32, i32, [4 x i8] }>
%class.obj_map.86 = type { %class.core_hashtable.87 }
%class.core_hashtable.87 = type <{ ptr, i32, i32, i32, [4 x i8] }>
%class.obj_map.24 = type { %class.core_hashtable.25 }
%class.core_hashtable.25 = type <{ ptr, i32, i32, i32, [4 x i8] }>
%class.obj_map.91 = type { %class.core_hashtable.92 }
%class.core_hashtable.92 = type <{ ptr, i32, i32, i32, [4 x i8] }>
%class.ref_vector_core.96 = type { %class.ptr_vector.56 }
%class.ptr_vector.97 = type { %class.vector.98 }
%class.vector.98 = type { ptr }
%class.decl_plugin = type <{ ptr, ptr, i32, [4 x i8] }>

@_ZN8datatype4utilC1ER11ast_manager = hidden unnamed_addr alias void (ptr, ptr), ptr @_ZN8datatype4utilC2ER11ast_manager

; Function Attrs: mustprogress uwtable
define linkonce_odr hidden void @_Z7deallocIN8datatype4utilEEvPT_(ptr noundef %0) #4 comdat {
  %2 = alloca ptr, align 8
  store ptr %0, ptr %2, align 8, !tbaa !52
  %3 = load ptr, ptr %2, align 8, !tbaa !52
  %4 = icmp eq ptr %3, null
  br i1 %4, label %5, label %6

5:                                                ; preds = %1
  br label %8

6:                                                ; preds = %1
  %7 = load ptr, ptr %2, align 8, !tbaa !52
  call void @_ZN6memory10deallocateEPv(ptr noundef %7)
  br label %8

8:                                                ; preds = %6, %5
  ret void
}

; Function Attrs: mustprogress uwtable
define linkonce_odr hidden noundef nonnull align 8 dereferenceable(8) ptr @_ZN10scoped_ptrIN8datatype4utilEEaSEPS1_(ptr noundef nonnull align 8 dereferenceable(8) %0, ptr noundef %1) #4 comdat align 2 {
  %3 = alloca ptr, align 8
  %4 = alloca ptr, align 8
  store ptr %0, ptr %3, align 8, !tbaa !183
  store ptr %1, ptr %4, align 8, !tbaa !52
  %5 = load ptr, ptr %3, align 8
  %6 = getelementptr inbounds nuw %class.scoped_ptr, ptr %5, i32 0, i32 0
  %7 = load ptr, ptr %6, align 8, !tbaa !185
  %8 = load ptr, ptr %4, align 8, !tbaa !52
  %9 = icmp ne ptr %7, %8
  br i1 %9, label %10, label %15

10:                                               ; preds = %2
  %11 = getelementptr inbounds nuw %class.scoped_ptr, ptr %5, i32 0, i32 0
  %12 = load ptr, ptr %11, align 8, !tbaa !185
  call void @_Z7deallocIN8datatype4utilEEvPT_(ptr noundef %12)
  %13 = load ptr, ptr %4, align 8, !tbaa !52
  %14 = getelementptr inbounds nuw %class.scoped_ptr, ptr %5, i32 0, i32 0
  store ptr %13, ptr %14, align 8, !tbaa !185
  br label %15

15:                                               ; preds = %10, %2
  ret ptr %5
}

; Function Attrs: mustprogress nounwind uwtable
define linkonce_odr hidden noundef ptr @_ZNK10scoped_ptrIN8datatype4utilEE3getEv(ptr noundef nonnull align 8 dereferenceable(8) %0) #5 comdat align 2 {
  %2 = alloca ptr, align 8
  store ptr %0, ptr %2, align 8, !tbaa !183
  %3 = load ptr, ptr %2, align 8
  %4 = getelementptr inbounds nuw %class.scoped_ptr, ptr %3, i32 0, i32 0
  %5 = load ptr, ptr %4, align 8, !tbaa !185
  ret ptr %5
}

; Function Attrs: mustprogress uwtable
define hidden noundef nonnull align 8 dereferenceable(24) ptr @_ZNK8datatype4decl6plugin1uEv(ptr noundef nonnull align 8 dereferenceable(360) %0) #4 align 2 {
  %2 = alloca ptr, align 8
  store ptr %0, ptr %2, align 8, !tbaa !160
  %3 = load ptr, ptr %2, align 8
  %4 = getelementptr inbounds nuw %"class.datatype::decl::plugin", ptr %3, i32 0, i32 1
  %5 = call noundef ptr @_ZNK10scoped_ptrIN8datatype4utilEE3getEv(ptr noundef nonnull align 8 dereferenceable(8) %4)
  %6 = icmp eq ptr %5, null
  br i1 %6, label %7, label %13

7:                                                ; preds = %1
  %8 = call noalias noundef ptr @_ZN6memory8allocateEm(i64 noundef 24)
  %9 = getelementptr inbounds nuw %class.decl_plugin, ptr %3, i32 0, i32 1
  %10 = load ptr, ptr %9, align 8, !tbaa !241
  call void @_ZN8datatype4utilC1ER11ast_manager(ptr noundef nonnull align 8 dereferenceable(24) %8, ptr noundef nonnull align 8 dereferenceable(976) %10)
  %11 = getelementptr inbounds nuw %"class.datatype::decl::plugin", ptr %3, i32 0, i32 1
  %12 = call noundef nonnull align 8 dereferenceable(8) ptr @_ZN10scoped_ptrIN8datatype4utilEEaSEPS1_(ptr noundef nonnull align 8 dereferenceable(8) %11, ptr noundef %8)
  br label %13

13:                                               ; preds = %7, %1
  %14 = getelementptr inbounds nuw %"class.datatype::decl::plugin", ptr %3, i32 0, i32 1
  %15 = call noundef ptr @_ZNK10scoped_ptrIN8datatype4utilEE3getEv(ptr noundef nonnull align 8 dereferenceable(8) %14)
  ret ptr %15
}