; Function Attrs: mustprogress uwtable
define hidden noundef nonnull align 8 dereferenceable(24) ptr @_ZNK8datatype4decl6plugin1uEv(ptr noundef nonnull align 8 captures(none) dereferenceable(360) %0) local_unnamed_addr #4 align 2 {
  %2 = getelementptr inbounds nuw i8, ptr %0, i64 24
  %3 = load ptr, ptr %2, align 8, !tbaa !171
  %4 = icmp eq ptr %3, null
  br i1 %4, label %5, label %_ZN10scoped_ptrIN8datatype4utilEEaSEPS1_.exit

5:                                                ; preds = %1
  %6 = tail call noalias noundef ptr @_ZN6memory8allocateEm(i64 noundef 24)
  %7 = getelementptr inbounds nuw i8, ptr %0, i64 8
  %8 = load ptr, ptr %7, align 8, !tbaa !253
  store ptr %8, ptr %6, align 8, !tbaa !33
  %9 = getelementptr inbounds nuw i8, ptr %6, i64 8
  store i32 -1, ptr %9, align 8, !tbaa !47
  %10 = getelementptr inbounds nuw i8, ptr %6, i64 16
  store ptr null, ptr %10, align 8, !tbaa !254
  %11 = load ptr, ptr %2, align 8, !tbaa !171
  %.not.i = icmp eq ptr %11, %6
  br i1 %.not.i, label %_ZN10scoped_ptrIN8datatype4utilEEaSEPS1_.exit, label %12

12:                                               ; preds = %5
  %13 = icmp eq ptr %11, null
  br i1 %13, label %_Z7deallocIN8datatype4utilEEvPT_.exit.i, label %14

14:                                               ; preds = %12
  tail call void @_ZN6memory10deallocateEPv(ptr noundef nonnull %11)
  br label %_Z7deallocIN8datatype4utilEEvPT_.exit.i

_Z7deallocIN8datatype4utilEEvPT_.exit.i:          ; preds = %14, %12
  store ptr %6, ptr %2, align 8, !tbaa !171
  br label %_ZN10scoped_ptrIN8datatype4utilEEaSEPS1_.exit

_ZN10scoped_ptrIN8datatype4utilEEaSEPS1_.exit:    ; preds = %_Z7deallocIN8datatype4utilEEvPT_.exit.i, %5, %1
  %15 = phi ptr [ %6, %_Z7deallocIN8datatype4utilEEvPT_.exit.i ], [ %11, %5 ], [ %3, %1 ]
  ret ptr %15
}